target datalayout = "e-m:e-p270:32:32-p271:32:32-p272:64:64-i64:64-i128:128-f80:128-n8:16:32:64-S128"
target triple = "x86_64-pc-linux-gnu"

%struct.rb_data_type_struct = type { ptr, %struct.anon.12, ptr, ptr, i64 }
%struct.anon.12 = type { ptr, ptr, ptr, ptr, [1 x ptr] }
%struct.lazyenum_funcs = type { ptr, ptr, ptr }
%struct.proc_entry = type { i64, i64, ptr }
%struct.RBasic = type { i64, i64 }
%struct.RArray = type { %struct.RBasic, %union.anon.14 }
%union.anon.14 = type { %struct.anon.15 }
%struct.anon.15 = type { i64, %union.anon.16, ptr }
%union.anon.16 = type { i64 }
%struct.MEMO = type { i64, i64, i64, i64, %union.anon.17 }
%union.anon.17 = type { i64 }

@id_memo = internal global i64 0, align 8
@proc_entry_data_type = internal constant %struct.rb_data_type_struct { ptr @.str.107, %struct.anon.12 { ptr @proc_entry_mark, ptr inttoptr (i64 -1 to ptr), ptr null, ptr @proc_entry_compact, [1 x ptr] zeroinitializer }, ptr null, ptr null, i64 35 }, align 8
@.str.108 = private unnamed_addr constant [20 x i8] c"../internal/imemo.h\00", align 1

; Function Attrs: inlinehint nounwind sspstrong willreturn memory(none) uwtable
define internal zeroext i1 @RB_IMMEDIATE_P(i64 noundef %0) #2 {
  %2 = alloca i64, align 8
  store i64 %0, ptr %2, align 8, !tbaa !7
  %3 = load i64, ptr %2, align 8, !tbaa !7
  %4 = and i64 %3, 7
  %5 = icmp ne i64 %4, 0
  ret i1 %5
}

; Function Attrs: inlinehint nounwind sspstrong willreturn memory(none) uwtable
define internal zeroext i1 @RB_SPECIAL_CONST_P(i64 noundef %0) #2 {
  %2 = alloca i64, align 8
  store i64 %0, ptr %2, align 8, !tbaa !7
  %3 = load i64, ptr %2, align 8, !tbaa !7
  %4 = icmp eq i64 %3, 0
  br i1 %4, label %8, label %5

5:                                                ; preds = %1
  %6 = load i64, ptr %2, align 8, !tbaa !7
  %7 = call zeroext i1 @RB_IMMEDIATE_P(i64 noundef %6) #24
  br label %8

8:                                                ; preds = %5, %1
  %9 = phi i1 [ true, %1 ], [ %7, %5 ]
  ret i1 %9
}

; Function Attrs: inlinehint nounwind sspstrong willreturn memory(read) uwtable
define internal i64 @RB_FL_TEST_RAW(i64 noundef %0, i64 noundef %1) #6 {
  %3 = alloca i64, align 8
  %4 = alloca i64, align 8
  store i64 %0, ptr %3, align 8, !tbaa !7
  store i64 %1, ptr %4, align 8, !tbaa !7
  %5 = load i64, ptr %3, align 8, !tbaa !7
  %6 = inttoptr i64 %5 to ptr
  %7 = getelementptr inbounds nuw %struct.RBasic, ptr %6, i32 0, i32 0
  %8 = load i64, ptr %7, align 8, !tbaa !87
  %9 = load i64, ptr %4, align 8, !tbaa !7
  %10 = and i64 %8, %9
  ret i64 %10
}

; Function Attrs: inlinehint nounwind sspstrong willreturn memory(read) uwtable
define internal i64 @RARRAY_EMBED_LEN(i64 noundef %0) #6 {
  %2 = alloca i64, align 8
  %3 = alloca i64, align 8
  store i64 %0, ptr %2, align 8, !tbaa !7
  call void @llvm.lifetime.start.p0(i64 8, ptr %3) #23
  %4 = load i64, ptr %2, align 8, !tbaa !7
  %5 = inttoptr i64 %4 to ptr
  %6 = getelementptr inbounds nuw %struct.RBasic, ptr %5, i32 0, i32 0
  %7 = load i64, ptr %6, align 8, !tbaa !87
  store i64 %7, ptr %3, align 8, !tbaa !7
  %8 = load i64, ptr %3, align 8, !tbaa !7
  %9 = and i64 %8, 4161536
  store i64 %9, ptr %3, align 8, !tbaa !7
  %10 = load i64, ptr %3, align 8, !tbaa !7
  %11 = lshr i64 %10, 15
  store i64 %11, ptr %3, align 8, !tbaa !7
  %12 = load i64, ptr %3, align 8, !tbaa !7
  call void @llvm.lifetime.end.p0(i64 8, ptr %3) #23
  ret i64 %12
}

; Function Attrs: inlinehint nounwind sspstrong uwtable
define internal i64 @rb_obj_written(i64 noundef %0, i64 noundef %1, i64 noundef %2, ptr noundef %3, i32 noundef %4) #4 {
  %6 = alloca i64, align 8
  %7 = alloca i64, align 8
  %8 = alloca i64, align 8
  %9 = alloca ptr, align 8
  %10 = alloca i32, align 4
  store i64 %0, ptr %6, align 8, !tbaa !7
  store i64 %1, ptr %7, align 8, !tbaa !7
  store i64 %2, ptr %8, align 8, !tbaa !7
  store ptr %3, ptr %9, align 8, !tbaa !34
  store i32 %4, ptr %10, align 4, !tbaa !11
  %11 = load i64, ptr %8, align 8, !tbaa !7
  %12 = call zeroext i1 @RB_SPECIAL_CONST_P(i64 noundef %11) #24
  br i1 %12, label %16, label %13

13:                                               ; preds = %5
  %14 = load i64, ptr %6, align 8, !tbaa !7
  %15 = load i64, ptr %8, align 8, !tbaa !7
  call void @rb_gc_writebarrier(i64 noundef %14, i64 noundef %15)
  br label %16

16:                                               ; preds = %13, %5
  %17 = load i64, ptr %6, align 8, !tbaa !7
  ret i64 %17
}

; Function Attrs: inlinehint nounwind sspstrong willreturn memory(read) uwtable
define internal zeroext i1 @RB_FL_ANY_RAW(i64 noundef %0, i64 noundef %1) #6 {
  %3 = alloca i64, align 8
  %4 = alloca i64, align 8
  store i64 %0, ptr %3, align 8, !tbaa !7
  store i64 %1, ptr %4, align 8, !tbaa !7
  %5 = load i64, ptr %3, align 8, !tbaa !7
  %6 = load i64, ptr %4, align 8, !tbaa !7
  %7 = call i64 @RB_FL_TEST_RAW(i64 noundef %5, i64 noundef %6) #26
  %8 = icmp ne i64 %7, 0
  ret i1 %8
}

; Function Attrs: nounwind sspstrong uwtable
define internal ptr @proc_entry_ptr(i64 noundef %0) #0 {
  %2 = alloca i64, align 8
  %3 = alloca ptr, align 8
  store i64 %0, ptr %2, align 8, !tbaa !7
  call void @llvm.lifetime.start.p0(i64 8, ptr %3) #23
  %4 = load i64, ptr %2, align 8, !tbaa !7
  %5 = call ptr @rb_check_typeddata(i64 noundef %4, ptr noundef @proc_entry_data_type)
  store ptr %5, ptr %3, align 8, !tbaa !43
  %6 = load ptr, ptr %3, align 8, !tbaa !43
  call void @llvm.lifetime.end.p0(i64 8, ptr %3) #23
  ret ptr %6
}

; Function Attrs: inlinehint nounwind sspstrong willreturn memory(read) uwtable
define internal i64 @rb_array_len(i64 noundef %0) #6 {
  %2 = alloca i64, align 8
  %3 = alloca i64, align 8
  store i64 %0, ptr %3, align 8, !tbaa !7
  %4 = load i64, ptr %3, align 8, !tbaa !7
  %5 = call zeroext i1 @RB_FL_ANY_RAW(i64 noundef %4, i64 noundef 8192) #26
  br i1 %5, label %6, label %9

6:                                                ; preds = %1
  %7 = load i64, ptr %3, align 8, !tbaa !7
  %8 = call i64 @RARRAY_EMBED_LEN(i64 noundef %7) #26
  store i64 %8, ptr %2, align 8
  br label %15

9:                                                ; preds = %1
  %10 = load i64, ptr %3, align 8, !tbaa !7
  %11 = inttoptr i64 %10 to ptr
  %12 = getelementptr inbounds nuw %struct.RArray, ptr %11, i32 0, i32 1
  %13 = getelementptr inbounds nuw %struct.anon.15, ptr %12, i32 0, i32 0
  %14 = load i64, ptr %13, align 8, !tbaa !93
  store i64 %14, ptr %2, align 8
  br label %15

15:                                               ; preds = %9, %6
  %16 = load i64, ptr %2, align 8
  ret i64 %16
}

; Function Attrs: inlinehint nounwind sspstrong uwtable
define internal i64 @rb_obj_write(i64 noundef %0, ptr noundef %1, i64 noundef %2, ptr noundef %3, i32 noundef %4) #4 {
  %6 = alloca i64, align 8
  %7 = alloca ptr, align 8
  %8 = alloca i64, align 8
  %9 = alloca ptr, align 8
  %10 = alloca i32, align 4
  store i64 %0, ptr %6, align 8, !tbaa !7
  store ptr %1, ptr %7, align 8, !tbaa !13
  store i64 %2, ptr %8, align 8, !tbaa !7
  store ptr %3, ptr %9, align 8, !tbaa !34
  store i32 %4, ptr %10, align 4, !tbaa !11
  %11 = load i64, ptr %8, align 8, !tbaa !7
  %12 = load ptr, ptr %7, align 8, !tbaa !13
  store i64 %11, ptr %12, align 8, !tbaa !7
  %13 = load i64, ptr %6, align 8, !tbaa !7
  %14 = load i64, ptr %8, align 8, !tbaa !7
  %15 = load ptr, ptr %9, align 8, !tbaa !34
  %16 = load i32, ptr %10, align 4, !tbaa !11
  %17 = call i64 @rb_obj_written(i64 noundef %13, i64 noundef 36, i64 noundef %14, ptr noundef %15, i32 noundef %16)
  %18 = load i64, ptr %6, align 8, !tbaa !7
  ret i64 %18
}

; Function Attrs: inlinehint nounwind sspstrong willreturn memory(read) uwtable
define internal ptr @rb_array_const_ptr(i64 noundef %0) #6 {
  %2 = alloca ptr, align 8
  %3 = alloca i64, align 8
  store i64 %0, ptr %3, align 8, !tbaa !7
  %4 = load i64, ptr %3, align 8, !tbaa !7
  %5 = call zeroext i1 @RB_FL_ANY_RAW(i64 noundef %4, i64 noundef 8192) #26
  br i1 %5, label %6, label %11

6:                                                ; preds = %1
  %7 = load i64, ptr %3, align 8, !tbaa !7
  %8 = inttoptr i64 %7 to ptr
  %9 = getelementptr inbounds nuw %struct.RArray, ptr %8, i32 0, i32 1
  %10 = getelementptr inbounds [1 x i64], ptr %9, i64 0, i64 0
  store ptr %10, ptr %2, align 8
  br label %17

11:                                               ; preds = %1
  %12 = load i64, ptr %3, align 8, !tbaa !7
  %13 = inttoptr i64 %12 to ptr
  %14 = getelementptr inbounds nuw %struct.RArray, ptr %13, i32 0, i32 1
  %15 = getelementptr inbounds nuw %struct.anon.15, ptr %14, i32 0, i32 2
  %16 = load ptr, ptr %15, align 8, !tbaa !93
  store ptr %16, ptr %2, align 8
  br label %17

17:                                               ; preds = %11, %6
  %18 = load ptr, ptr %2, align 8
  ret ptr %18
}

; Function Attrs: nounwind sspstrong uwtable
define internal i64 @lazy_yielder_result(ptr noundef %0, i64 noundef %1, i64 noundef %2, i64 noundef %3, i64 noundef %4) #0 {
  %6 = alloca ptr, align 8
  %7 = alloca i64, align 8
  %8 = alloca i64, align 8
  %9 = alloca i64, align 8
  %10 = alloca i64, align 8
  %11 = alloca i32, align 4
  %12 = alloca i64, align 8
  %13 = alloca ptr, align 8
  %14 = alloca i32, align 4
  store ptr %0, ptr %6, align 8, !tbaa !101
  store i64 %1, ptr %7, align 8, !tbaa !7
  store i64 %2, ptr %8, align 8, !tbaa !7
  store i64 %3, ptr %9, align 8, !tbaa !7
  store i64 %4, ptr %10, align 8, !tbaa !7
  call void @llvm.lifetime.start.p0(i64 4, ptr %11) #23
  store i32 1, ptr %11, align 4, !tbaa !11
  br label %15

15:                                               ; preds = %42, %5
  %16 = load i64, ptr %10, align 8, !tbaa !7
  %17 = load i64, ptr %8, align 8, !tbaa !7
  %18 = call i64 @rb_array_len(i64 noundef %17) #26
  %19 = icmp slt i64 %16, %18
  br i1 %19, label %20, label %45

20:                                               ; preds = %15
  call void @llvm.lifetime.start.p0(i64 8, ptr %12) #23
  %21 = load i64, ptr %8, align 8, !tbaa !7
  %22 = load i64, ptr %10, align 8, !tbaa !7
  %23 = call i64 @RARRAY_AREF(i64 noundef %21, i64 noundef %22) #26
  store i64 %23, ptr %12, align 8, !tbaa !7
  call void @llvm.lifetime.start.p0(i64 8, ptr %13) #23
  %24 = load i64, ptr %12, align 8, !tbaa !7
  %25 = call ptr @proc_entry_ptr(i64 noundef %24)
  store ptr %25, ptr %13, align 8, !tbaa !43
  %26 = load ptr, ptr %13, align 8, !tbaa !43
  %27 = getelementptr inbounds nuw %struct.proc_entry, ptr %26, i32 0, i32 2
  %28 = load ptr, ptr %27, align 8, !tbaa !45
  %29 = getelementptr inbounds nuw %struct.lazyenum_funcs, ptr %28, i32 0, i32 0
  %30 = load ptr, ptr %29, align 8, !tbaa !120
  %31 = load i64, ptr %12, align 8, !tbaa !7
  %32 = load ptr, ptr %6, align 8, !tbaa !101
  %33 = load i64, ptr %9, align 8, !tbaa !7
  %34 = load i64, ptr %10, align 8, !tbaa !7
  %35 = call ptr %30(i64 noundef %31, ptr noundef %32, i64 noundef %33, i64 noundef %34)
  %36 = icmp ne ptr %35, null
  br i1 %36, label %38, label %37

37:                                               ; preds = %20
  store i32 0, ptr %11, align 4, !tbaa !11
  store i32 2, ptr %14, align 4
  br label %39

38:                                               ; preds = %20
  store i32 0, ptr %14, align 4
  br label %39

39:                                               ; preds = %38, %37
  call void @llvm.lifetime.end.p0(i64 8, ptr %13) #23
  call void @llvm.lifetime.end.p0(i64 8, ptr %12) #23
  %40 = load i32, ptr %14, align 4
  switch i32 %40, label %64 [
    i32 0, label %41
    i32 2, label %45
  ]

41:                                               ; preds = %39
  br label %42

42:                                               ; preds = %41
  %43 = load i64, ptr %10, align 8, !tbaa !7
  %44 = add i64 %43, 1
  store i64 %44, ptr %10, align 8, !tbaa !7
  br label %15, !llvm.loop !121

45:                                               ; preds = %39, %15
  %46 = load i32, ptr %11, align 4, !tbaa !11
  %47 = icmp ne i32 %46, 0
  br i1 %47, label %48, label %53

48:                                               ; preds = %45
  %49 = load i64, ptr %7, align 8, !tbaa !7
  %50 = load ptr, ptr %6, align 8, !tbaa !101
  %51 = getelementptr inbounds nuw %struct.MEMO, ptr %50, i32 0, i32 3
  %52 = call i64 @rb_funcallv(i64 noundef %49, i64 noundef 136, i32 noundef 1, ptr noundef %51)
  br label %53

53:                                               ; preds = %48, %45
  %54 = load ptr, ptr %6, align 8, !tbaa !101
  %55 = getelementptr inbounds nuw %struct.MEMO, ptr %54, i32 0, i32 4
  %56 = load i64, ptr %55, align 8, !tbaa !93
  %57 = and i64 %56, 1
  %58 = icmp ne i64 %57, 0
  br i1 %58, label %59, label %60

59:                                               ; preds = %53
  call void @rb_iter_break() #25
  unreachable

60:                                               ; preds = %53
  %61 = load ptr, ptr %6, align 8, !tbaa !101
  %62 = getelementptr inbounds nuw %struct.MEMO, ptr %61, i32 0, i32 3
  %63 = load i64, ptr %62, align 8, !tbaa !122
  store i32 1, ptr %14, align 4
  call void @llvm.lifetime.end.p0(i64 4, ptr %11) #23
  ret i64 %63

64:                                               ; preds = %39
  unreachable
}

; Function Attrs: inlinehint nounwind sspstrong uwtable
define internal void @MEMO_V2_SET(ptr noundef %0, i64 noundef %1) #4 {
  %3 = alloca ptr, align 8
  %4 = alloca i64, align 8
  store ptr %0, ptr %3, align 8, !tbaa !101
  store i64 %1, ptr %4, align 8, !tbaa !7
  %5 = load ptr, ptr %3, align 8, !tbaa !101
  %6 = ptrtoint ptr %5 to i64
  %7 = load ptr, ptr %3, align 8, !tbaa !101
  %8 = getelementptr inbounds nuw %struct.MEMO, ptr %7, i32 0, i32 3
  %9 = load i64, ptr %4, align 8, !tbaa !7
  %10 = call i64 @rb_obj_write(i64 noundef %6, ptr noundef %8, i64 noundef %9, ptr noundef @.str.108, i32 noundef 254)
  ret void
}

; Function Attrs: inlinehint nounwind sspstrong willreturn memory(read) uwtable
define internal i64 @RARRAY_AREF(i64 noundef %0, i64 noundef %1) #6 {
  %3 = alloca i64, align 8
  %4 = alloca i64, align 8
  %5 = alloca i64, align 8
  store i64 %0, ptr %3, align 8, !tbaa !7
  store i64 %1, ptr %4, align 8, !tbaa !7
  call void @llvm.lifetime.start.p0(i64 8, ptr %5) #23
  %6 = load i64, ptr %3, align 8, !tbaa !7
  %7 = call ptr @rb_array_const_ptr(i64 noundef %6) #26
  %8 = load i64, ptr %4, align 8, !tbaa !7
  %9 = getelementptr i64, ptr %7, i64 %8
  %10 = load i64, ptr %9, align 8, !tbaa !7
  store i64 %10, ptr %5, align 8, !tbaa !7
  %11 = load i64, ptr %5, align 8, !tbaa !7
  call void @llvm.lifetime.end.p0(i64 8, ptr %5) #23
  ret i64 %11
}

; Function Attrs: nounwind sspstrong uwtable
define internal i64 @lazy_yielder_yield(ptr noundef %0, i64 noundef %1, i32 noundef %2, ptr noundef %3) #0 {
  %5 = alloca ptr, align 8
  %6 = alloca i64, align 8
  %7 = alloca i32, align 4
  %8 = alloca ptr, align 8
  %9 = alloca i64, align 8
  %10 = alloca i64, align 8
  %11 = alloca i64, align 8
  %12 = alloca i64, align 8
  store ptr %0, ptr %5, align 8, !tbaa !101
  store i64 %1, ptr %6, align 8, !tbaa !7
  store i32 %2, ptr %7, align 4, !tbaa !11
  store ptr %3, ptr %8, align 8, !tbaa !13
  call void @llvm.lifetime.start.p0(i64 8, ptr %9) #23
  %13 = load ptr, ptr %5, align 8, !tbaa !101
  %14 = getelementptr inbounds nuw %struct.MEMO, ptr %13, i32 0, i32 2
  %15 = load i64, ptr %14, align 8, !tbaa !103
  store i64 %15, ptr %9, align 8, !tbaa !7
  call void @llvm.lifetime.start.p0(i64 8, ptr %10) #23
  %16 = load i64, ptr %9, align 8, !tbaa !7
  %17 = call i64 @RARRAY_AREF(i64 noundef %16, i64 noundef 0) #26
  store i64 %17, ptr %10, align 8, !tbaa !7
  call void @llvm.lifetime.start.p0(i64 8, ptr %11) #23
  %18 = load i64, ptr %9, align 8, !tbaa !7
  %19 = call i64 @RARRAY_AREF(i64 noundef %18, i64 noundef 1) #26
  store i64 %19, ptr %11, align 8, !tbaa !7
  call void @llvm.lifetime.start.p0(i64 8, ptr %12) #23
  %20 = load i64, ptr %10, align 8, !tbaa !7
  %21 = load i64, ptr @id_memo, align 8, !tbaa !7
  %22 = call i64 @rb_attr_get(i64 noundef %20, i64 noundef %21)
  store i64 %22, ptr %12, align 8, !tbaa !7
  %23 = load ptr, ptr %5, align 8, !tbaa !101
  %24 = load i32, ptr %7, align 4, !tbaa !11
  %25 = load ptr, ptr %8, align 8, !tbaa !13
  %26 = call i64 @rb_enum_values_pack(i32 noundef %24, ptr noundef %25)
  call void @MEMO_V2_SET(ptr noundef %23, i64 noundef %26)
  %27 = load i32, ptr %7, align 4, !tbaa !11
  %28 = icmp sgt i32 %27, 1
  br i1 %28, label %29, label %34

29:                                               ; preds = %4
  %30 = load ptr, ptr %5, align 8, !tbaa !101
  %31 = getelementptr inbounds nuw %struct.MEMO, ptr %30, i32 0, i32 4
  %32 = load i64, ptr %31, align 8, !tbaa !93
  %33 = or i64 %32, 2
  store i64 %33, ptr %31, align 8, !tbaa !93
  br label %39

34:                                               ; preds = %4
  %35 = load ptr, ptr %5, align 8, !tbaa !101
  %36 = getelementptr inbounds nuw %struct.MEMO, ptr %35, i32 0, i32 4
  %37 = load i64, ptr %36, align 8, !tbaa !93
  %38 = and i64 %37, -3
  store i64 %38, ptr %36, align 8, !tbaa !93
  br label %39

39:                                               ; preds = %34, %29
  %40 = load ptr, ptr %5, align 8, !tbaa !101
  %41 = load i64, ptr %10, align 8, !tbaa !7
  %42 = load i64, ptr %11, align 8, !tbaa !7
  %43 = load i64, ptr %12, align 8, !tbaa !7
  %44 = load i64, ptr %6, align 8, !tbaa !7
  %45 = call i64 @lazy_yielder_result(ptr noundef %40, i64 noundef %41, i64 noundef %42, i64 noundef %43, i64 noundef %44)
  call void @llvm.lifetime.end.p0(i64 8, ptr %12) #23
  call void @llvm.lifetime.end.p0(i64 8, ptr %11) #23
  call void @llvm.lifetime.end.p0(i64 8, ptr %10) #23
  call void @llvm.lifetime.end.p0(i64 8, ptr %9) #23
  ret i64 %45
}