; Function Attrs: nounwind sspstrong uwtable
define internal fastcc i64 @lazy_yielder_yield(ptr noundef initializes((24, 32)) %0, i64 noundef %1, i32 noundef %2, ptr noundef %3) unnamed_addr #0 {
  %5 = getelementptr inbounds nuw i8, ptr %0, i64 16
  %6 = load i64, ptr %5, align 8, !tbaa !95
  %7 = inttoptr i64 %6 to ptr
  %8 = load i64, ptr %7, align 8, !tbaa !21
  %9 = and i64 %8, 8192
  %.not.i.i = icmp eq i64 %9, 0
  br i1 %.not.i.i, label %12, label %10

10:                                               ; preds = %4
  %11 = getelementptr inbounds nuw i8, ptr %7, i64 16
  br label %RARRAY_AREF.exit16

12:                                               ; preds = %4
  %13 = getelementptr inbounds nuw i8, ptr %7, i64 32
  %14 = load ptr, ptr %13, align 8, !tbaa !44
  br label %RARRAY_AREF.exit16

RARRAY_AREF.exit16:                               ; preds = %10, %12
  %.in = phi ptr [ %11, %10 ], [ %14, %12 ]
  %15 = load i64, ptr %.in, align 8, !tbaa !7
  %16 = getelementptr i8, ptr %.in, i64 8
  %17 = load i64, ptr %16, align 8, !tbaa !7
  %18 = load i64, ptr @id_memo, align 8, !tbaa !7
  %19 = tail call i64 @rb_attr_get(i64 noundef %15, i64 noundef %18) #18
  %20 = tail call i64 @rb_enum_values_pack(i32 noundef %2, ptr noundef %3) #18
  %21 = getelementptr inbounds nuw i8, ptr %0, i64 24
  store i64 %20, ptr %21, align 8, !tbaa !7
  %22 = icmp eq i64 %20, 0
  %23 = and i64 %20, 7
  %24 = icmp ne i64 %23, 0
  %25 = or i1 %22, %24
  br i1 %25, label %MEMO_V2_SET.exit, label %26

26:                                               ; preds = %RARRAY_AREF.exit16
  %27 = ptrtoint ptr %0 to i64
  tail call void @rb_gc_writebarrier(i64 noundef %27, i64 noundef %20) #18
  br label %MEMO_V2_SET.exit

MEMO_V2_SET.exit:                                 ; preds = %RARRAY_AREF.exit16, %26
  %28 = icmp sgt i32 %2, 1
  %29 = getelementptr inbounds nuw i8, ptr %0, i64 32
  %30 = load i64, ptr %29, align 8, !tbaa !44
  %31 = and i64 %30, -3
  %masksel = select i1 %28, i64 2, i64 0
  %.sink = or disjoint i64 %31, %masksel
  store i64 %.sink, ptr %29, align 8, !tbaa !44
  %32 = inttoptr i64 %17 to ptr
  %33 = getelementptr inbounds nuw i8, ptr %32, i64 16
  %34 = getelementptr inbounds nuw i8, ptr %32, i64 32
  br label %35

35:                                               ; preds = %RARRAY_AREF.exit.i, %MEMO_V2_SET.exit
  %.016.i = phi i64 [ %1, %MEMO_V2_SET.exit ], [ %52, %RARRAY_AREF.exit.i ]
  %36 = load i64, ptr %32, align 8, !tbaa !21
  %37 = and i64 %36, 8192
  %.not.i.i17 = icmp eq i64 %37, 0
  br i1 %.not.i.i17, label %rb_array_len.exit.i, label %rb_array_len.exit.thread.i

rb_array_len.exit.i:                              ; preds = %35
  %38 = load i64, ptr %33, align 8, !tbaa !44
  %39 = icmp slt i64 %.016.i, %38
  br i1 %39, label %43, label %53

rb_array_len.exit.thread.i:                       ; preds = %35
  %40 = lshr i64 %36, 15
  %41 = and i64 %40, 127
  %42 = icmp slt i64 %.016.i, %41
  br i1 %42, label %RARRAY_AREF.exit.i, label %53

43:                                               ; preds = %rb_array_len.exit.i
  %44 = load ptr, ptr %34, align 8, !tbaa !44
  br label %RARRAY_AREF.exit.i

RARRAY_AREF.exit.i:                               ; preds = %43, %rb_array_len.exit.thread.i
  %.0.i.i.i = phi ptr [ %44, %43 ], [ %33, %rb_array_len.exit.thread.i ]
  %45 = getelementptr i64, ptr %.0.i.i.i, i64 %.016.i
  %46 = load i64, ptr %45, align 8, !tbaa !7
  %47 = tail call ptr @rb_check_typeddata(i64 noundef %46, ptr noundef nonnull @proc_entry_data_type) #18
  %48 = getelementptr inbounds nuw i8, ptr %47, i64 16
  %49 = load ptr, ptr %48, align 8, !tbaa !46
  %50 = load ptr, ptr %49, align 8, !tbaa !103
  %51 = tail call ptr %50(i64 noundef %46, ptr noundef %0, i64 noundef %19, i64 noundef %.016.i) #18
  %.not.i = icmp eq ptr %51, null
  %52 = add nsw i64 %.016.i, 1
  br i1 %.not.i, label %.critedge.i, label %35, !llvm.loop !104

53:                                               ; preds = %rb_array_len.exit.thread.i, %rb_array_len.exit.i
  %54 = tail call i64 @rb_funcallv(i64 noundef %15, i64 noundef 136, i32 noundef 1, ptr noundef nonnull %21) #18
  br label %.critedge.i

.critedge.i:                                      ; preds = %RARRAY_AREF.exit.i, %53
  %55 = getelementptr inbounds nuw i8, ptr %0, i64 32
  %56 = load i64, ptr %55, align 8, !tbaa !44
  %57 = and i64 %56, 1
  %.not19.i = icmp eq i64 %57, 0
  br i1 %.not19.i, label %lazy_yielder_result.exit, label %58

58:                                               ; preds = %.critedge.i
  tail call void @rb_iter_break() #19
  unreachable

lazy_yielder_result.exit:                         ; preds = %.critedge.i
  %59 = load i64, ptr %21, align 8, !tbaa !105
  ret i64 %59
}